; Function Attrs: nounwind sspstrong uwtable
define dso_local void @target_to_host_sigset_internal(ptr noundef %d, ptr noundef readonly captures(none) %s) local_unnamed_addr #1 {
entry:
  %call = tail call i32 @sigemptyset(ptr noundef %d) #16
  br label %target_to_host_signal.exit

target_to_host_signal.exit:                       ; preds = %entry, %for.inc
  %indvars.iv = phi i64 [ 1, %entry ], [ %indvars.iv.next, %for.inc ]
  %arrayidx.i = getelementptr [65 x i8], ptr @target_to_host_signal_table, i64 0, i64 %indvars.iv
  %0 = load i8, ptr %arrayidx.i, align 1
  %conv.i = zext i8 %0 to i32
  %1 = add nsw i32 %conv.i, -65
  %or.cond = icmp ult i32 %1, -64
  br i1 %or.cond, label %for.inc, label %if.end

if.end:                                           ; preds = %target_to_host_signal.exit
  %2 = add nsw i64 %indvars.iv, -1
  %3 = load i64, ptr %s, align 8
  %4 = shl nuw i64 1, %2
  %5 = and i64 %3, %4
  %tobool.not = icmp eq i64 %5, 0
  br i1 %tobool.not, label %for.inc, label %if.then5

if.then5:                                         ; preds = %if.end
  %call6 = tail call i32 @sigaddset(ptr noundef %d, i32 noundef %conv.i) #16
  br label %for.inc

for.inc:                                          ; preds = %if.end, %if.then5, %target_to_host_signal.exit
  %indvars.iv.next = add nuw nsw i64 %indvars.iv, 1
  %exitcond.not = icmp eq i64 %indvars.iv.next, 65
  br i1 %exitcond.not, label %for.end, label %target_to_host_signal.exit, !llvm.loop !7

for.end:                                          ; preds = %for.inc
  ret void
}